target datalayout = "e-m:e-p270:32:32-p271:32:32-p272:64:64-i64:64-i128:128-f80:128-n8:16:32:64-S128"
target triple = "x86_64-pc-linux-gnu"

; Function Attrs: nounwind uwtable
define internal void @kwsysProcessCleanupDescriptor(ptr noundef %0) #0 {
  %2 = alloca ptr, align 8
  store ptr %0, ptr %2, align 8, !tbaa !56
  %3 = load ptr, ptr %2, align 8, !tbaa !56
  %4 = icmp ne ptr %3, null
  br i1 %4, label %5, label %24

5:                                                ; preds = %1
  %6 = load ptr, ptr %2, align 8, !tbaa !56
  %7 = load i32, ptr %6, align 4, !tbaa !20
  %8 = icmp sgt i32 %7, 2
  br i1 %8, label %9, label %24

9:                                                ; preds = %5
  br label %10

10:                                               ; preds = %21, %9
  %11 = load ptr, ptr %2, align 8, !tbaa !56
  %12 = load i32, ptr %11, align 4, !tbaa !20
  %13 = call i32 @close(i32 noundef %12)
  %14 = icmp slt i32 %13, 0
  br i1 %14, label %15, label %19

15:                                               ; preds = %10
  %16 = call ptr @__errno_location() #14
  %17 = load i32, ptr %16, align 4, !tbaa !20
  %18 = icmp eq i32 %17, 4
  br label %19

19:                                               ; preds = %15, %10
  %20 = phi i1 [ false, %10 ], [ %18, %15 ]
  br i1 %20, label %21, label %22

21:                                               ; preds = %19
  br label %10, !llvm.loop !107

22:                                               ; preds = %19
  %23 = load ptr, ptr %2, align 8, !tbaa !56
  store i32 -1, ptr %23, align 4, !tbaa !20
  br label %24

24:                                               ; preds = %22, %5, %1
  ret void
}