; Function Attrs: nounwind uwtable
define internal fastcc void @kwsysProcessCleanupDescriptor(ptr noundef nonnull captures(none) %0) unnamed_addr #4 {
  %2 = load i32, ptr %0, align 4, !tbaa !35
  %3 = icmp sgt i32 %2, 2
  br i1 %3, label %.preheader, label %11

.preheader:                                       ; preds = %1, %7
  %4 = load i32, ptr %0, align 4, !tbaa !35
  %5 = tail call i32 @close(i32 noundef %4) #25
  %6 = icmp slt i32 %5, 0
  br i1 %6, label %7, label %.critedge

7:                                                ; preds = %.preheader
  %8 = tail call ptr @__errno_location() #28
  %9 = load i32, ptr %8, align 4, !tbaa !35
  %10 = icmp eq i32 %9, 4
  br i1 %10, label %.preheader, label %.critedge, !llvm.loop !94

.critedge:                                        ; preds = %.preheader, %7
  store i32 -1, ptr %0, align 4, !tbaa !35
  br label %11

11:                                               ; preds = %.critedge, %1
  ret void
}